; Function Attrs: null_pointer_is_valid sspstrong uwtable
define internal i32 @fileexp_dissect_fetchstatus_rqst(ptr noundef %0, i32 noundef %1, ptr noundef %2, ptr noundef %3, ptr noundef %4, ptr noundef %5) #0 {
  %7 = getelementptr inbounds nuw i8, ptr %4, i64 25
  %8 = load i8, ptr %7, align 1, !range !6, !noundef !7
  %9 = trunc nuw i8 %8 to i1
  br i1 %9, label %14, label %10

10:                                               ; preds = %6
  %11 = tail call i32 @dissect_ndr_pointer(ptr noundef %0, i32 noundef %1, ptr noundef %2, ptr noundef %3, ptr noundef %4, ptr noundef %5, ptr noundef nonnull @dissect_afsFid, i32 noundef 1, ptr noundef nonnull @.str.376, i32 noundef -1)
  %12 = tail call i32 @dissect_ndr_pointer(ptr noundef %0, i32 noundef %11, ptr noundef %2, ptr noundef %3, ptr noundef %4, ptr noundef %5, ptr noundef nonnull @dissect_minvvp, i32 noundef 1, ptr noundef nonnull @.str.377, i32 noundef -1)
  %13 = tail call i32 @dissect_ndr_pointer(ptr noundef %0, i32 noundef %12, ptr noundef %2, ptr noundef %3, ptr noundef %4, ptr noundef %5, ptr noundef nonnull @dissect_afsFlags, i32 noundef 1, ptr noundef nonnull @.str.378, i32 noundef -1)
  br label %14

14:                                               ; preds = %6, %10
  %.0 = phi i32 [ %13, %10 ], [ %1, %6 ]
  ret i32 %.0
}